target datalayout = "e-m:e-p270:32:32-p271:32:32-p272:64:64-i64:64-i128:128-f80:128-n8:16:32:64-S128"
target triple = "x86_64-pc-linux-gnu"

%struct.DdManager = type { %struct.DdNode, ptr, ptr, ptr, ptr, ptr, ptr, ptr, i32, i32, double, double, double, i32, i32, i32, i32, i32, i32, ptr, ptr, %struct.DdSubtable, i32, i32, i32, i32, i32, i32, i32, double, i32, i32, i32, ptr, i64, double, i32, ptr, ptr, ptr, ptr, ptr, ptr, ptr, i32, ptr, ptr, ptr, ptr, ptr, ptr, i32, i32, i32, double, i32, i32, i32, i32, double, double, i32, i32, i32, i32, i32, i32, i32, i32, i32, ptr, ptr, i32, i32, i32, i32, i32, i32, ptr, ptr, ptr, ptr, ptr, ptr, ptr, ptr, i32, i64, i64, i64, i32, i64, i64, double, double, double, double, double, double, i32, ptr, ptr, i64 }
%struct.DdNode = type { i32, i32, ptr, %union.anon, i64 }
%union.anon = type { %struct.DdChildren }
%struct.DdChildren = type { ptr, ptr }
%struct.DdSubtable = type { ptr, i32, i32, i32, i32, i32, i32, i32, i32, i32, i32, i32 }
%struct.Move = type { i32, i32, i32, i32, ptr }

; Function Attrs: nounwind uwtable
define internal i32 @ddGroupMove(ptr noundef %0, i32 noundef %1, i32 noundef %2, ptr noundef %3) #0 {
  %5 = alloca i32, align 4
  %6 = alloca ptr, align 8
  %7 = alloca i32, align 4
  %8 = alloca i32, align 4
  %9 = alloca ptr, align 8
  %10 = alloca ptr, align 8
  %11 = alloca i32, align 4
  %12 = alloca i32, align 4
  %13 = alloca i32, align 4
  %14 = alloca i32, align 4
  %15 = alloca i32, align 4
  %16 = alloca i32, align 4
  %17 = alloca i32, align 4
  %18 = alloca i32, align 4
  %19 = alloca i32, align 4
  %20 = alloca i32, align 4
  %21 = alloca i32, align 4
  %22 = alloca i32, align 4
  %23 = alloca i32, align 4
  store ptr %0, ptr %6, align 8, !tbaa !3
  store i32 %1, ptr %7, align 4, !tbaa !8
  store i32 %2, ptr %8, align 4, !tbaa !8
  store ptr %3, ptr %9, align 8, !tbaa !100
  call void @llvm.lifetime.start.p0(i64 8, ptr %10) #6
  call void @llvm.lifetime.start.p0(i64 4, ptr %11) #6
  call void @llvm.lifetime.start.p0(i64 4, ptr %12) #6
  call void @llvm.lifetime.start.p0(i64 4, ptr %13) #6
  call void @llvm.lifetime.start.p0(i64 4, ptr %14) #6
  call void @llvm.lifetime.start.p0(i64 4, ptr %15) #6
  call void @llvm.lifetime.start.p0(i64 4, ptr %16) #6
  call void @llvm.lifetime.start.p0(i64 4, ptr %17) #6
  call void @llvm.lifetime.start.p0(i64 4, ptr %18) #6
  call void @llvm.lifetime.start.p0(i64 4, ptr %19) #6
  call void @llvm.lifetime.start.p0(i64 4, ptr %20) #6
  call void @llvm.lifetime.start.p0(i64 4, ptr %21) #6
  store i32 -1, ptr %21, align 4, !tbaa !8
  call void @llvm.lifetime.start.p0(i64 4, ptr %22) #6
  store i32 -1, ptr %22, align 4, !tbaa !8
  %24 = load i32, ptr %7, align 4, !tbaa !8
  store i32 %24, ptr %15, align 4, !tbaa !8
  %25 = load ptr, ptr %6, align 8, !tbaa !3
  %26 = getelementptr inbounds nuw %struct.DdManager, ptr %25, i32 0, i32 19
  %27 = load ptr, ptr %26, align 8, !tbaa !34
  %28 = load i32, ptr %7, align 4, !tbaa !8
  %29 = sext i32 %28 to i64
  %30 = getelementptr inbounds %struct.DdSubtable, ptr %27, i64 %29
  %31 = getelementptr inbounds nuw %struct.DdSubtable, ptr %30, i32 0, i32 6
  %32 = load i32, ptr %31, align 4, !tbaa !35
  store i32 %32, ptr %14, align 4, !tbaa !8
  %33 = load i32, ptr %15, align 4, !tbaa !8
  %34 = load i32, ptr %14, align 4, !tbaa !8
  %35 = sub nsw i32 %33, %34
  %36 = add nsw i32 %35, 1
  store i32 %36, ptr %16, align 4, !tbaa !8
  %37 = load i32, ptr %8, align 4, !tbaa !8
  store i32 %37, ptr %18, align 4, !tbaa !8
  br label %38

38:                                               ; preds = %49, %4
  %39 = load i32, ptr %18, align 4, !tbaa !8
  %40 = load ptr, ptr %6, align 8, !tbaa !3
  %41 = getelementptr inbounds nuw %struct.DdManager, ptr %40, i32 0, i32 19
  %42 = load ptr, ptr %41, align 8, !tbaa !34
  %43 = load i32, ptr %18, align 4, !tbaa !8
  %44 = sext i32 %43 to i64
  %45 = getelementptr inbounds %struct.DdSubtable, ptr %42, i64 %44
  %46 = getelementptr inbounds nuw %struct.DdSubtable, ptr %45, i32 0, i32 6
  %47 = load i32, ptr %46, align 4, !tbaa !35
  %48 = icmp ult i32 %39, %47
  br i1 %48, label %49, label %58

49:                                               ; preds = %38
  %50 = load ptr, ptr %6, align 8, !tbaa !3
  %51 = getelementptr inbounds nuw %struct.DdManager, ptr %50, i32 0, i32 19
  %52 = load ptr, ptr %51, align 8, !tbaa !34
  %53 = load i32, ptr %18, align 4, !tbaa !8
  %54 = sext i32 %53 to i64
  %55 = getelementptr inbounds %struct.DdSubtable, ptr %52, i64 %54
  %56 = getelementptr inbounds nuw %struct.DdSubtable, ptr %55, i32 0, i32 6
  %57 = load i32, ptr %56, align 4, !tbaa !35
  store i32 %57, ptr %18, align 4, !tbaa !8
  br label %38, !llvm.loop !123

58:                                               ; preds = %38
  %59 = load i32, ptr %8, align 4, !tbaa !8
  store i32 %59, ptr %17, align 4, !tbaa !8
  %60 = load i32, ptr %18, align 4, !tbaa !8
  %61 = load i32, ptr %17, align 4, !tbaa !8
  %62 = sub nsw i32 %60, %61
  %63 = add nsw i32 %62, 1
  store i32 %63, ptr %19, align 4, !tbaa !8
  store i32 1, ptr %12, align 4, !tbaa !8
  br label %64

64:                                               ; preds = %98, %58
  %65 = load i32, ptr %12, align 4, !tbaa !8
  %66 = load i32, ptr %19, align 4, !tbaa !8
  %67 = icmp sle i32 %65, %66
  br i1 %67, label %68, label %101

68:                                               ; preds = %64
  store i32 1, ptr %13, align 4, !tbaa !8
  br label %69

69:                                               ; preds = %88, %68
  %70 = load i32, ptr %13, align 4, !tbaa !8
  %71 = load i32, ptr %16, align 4, !tbaa !8
  %72 = icmp sle i32 %70, %71
  br i1 %72, label %73, label %91

73:                                               ; preds = %69
  %74 = load ptr, ptr %6, align 8, !tbaa !3
  %75 = load i32, ptr %7, align 4, !tbaa !8
  %76 = load i32, ptr %8, align 4, !tbaa !8
  %77 = call i32 @cuddSwapInPlace(ptr noundef %74, i32 noundef %75, i32 noundef %76)
  store i32 %77, ptr %11, align 4, !tbaa !8
  %78 = load i32, ptr %11, align 4, !tbaa !8
  %79 = icmp eq i32 %78, 0
  br i1 %79, label %80, label %81

80:                                               ; preds = %73
  br label %205

81:                                               ; preds = %73
  %82 = load i32, ptr %7, align 4, !tbaa !8
  store i32 %82, ptr %21, align 4, !tbaa !8
  %83 = load i32, ptr %8, align 4, !tbaa !8
  store i32 %83, ptr %22, align 4, !tbaa !8
  %84 = load i32, ptr %7, align 4, !tbaa !8
  store i32 %84, ptr %8, align 4, !tbaa !8
  %85 = load ptr, ptr %6, align 8, !tbaa !3
  %86 = load i32, ptr %8, align 4, !tbaa !8
  %87 = call i32 @cuddNextLow(ptr noundef %85, i32 noundef %86)
  store i32 %87, ptr %7, align 4, !tbaa !8
  br label %88

88:                                               ; preds = %81
  %89 = load i32, ptr %13, align 4, !tbaa !8
  %90 = add nsw i32 %89, 1
  store i32 %90, ptr %13, align 4, !tbaa !8
  br label %69, !llvm.loop !124

91:                                               ; preds = %69
  %92 = load i32, ptr %17, align 4, !tbaa !8
  %93 = load i32, ptr %12, align 4, !tbaa !8
  %94 = add nsw i32 %92, %93
  store i32 %94, ptr %8, align 4, !tbaa !8
  %95 = load ptr, ptr %6, align 8, !tbaa !3
  %96 = load i32, ptr %8, align 4, !tbaa !8
  %97 = call i32 @cuddNextLow(ptr noundef %95, i32 noundef %96)
  store i32 %97, ptr %7, align 4, !tbaa !8
  br label %98

98:                                               ; preds = %91
  %99 = load i32, ptr %12, align 4, !tbaa !8
  %100 = add nsw i32 %99, 1
  store i32 %100, ptr %12, align 4, !tbaa !8
  br label %64, !llvm.loop !125

101:                                              ; preds = %64
  %102 = load i32, ptr %14, align 4, !tbaa !8
  store i32 %102, ptr %8, align 4, !tbaa !8
  store i32 0, ptr %12, align 4, !tbaa !8
  br label %103

103:                                              ; preds = %122, %101
  %104 = load i32, ptr %12, align 4, !tbaa !8
  %105 = load i32, ptr %19, align 4, !tbaa !8
  %106 = sub nsw i32 %105, 1
  %107 = icmp slt i32 %104, %106
  br i1 %107, label %108, label %125

108:                                              ; preds = %103
  %109 = load ptr, ptr %6, align 8, !tbaa !3
  %110 = load i32, ptr %8, align 4, !tbaa !8
  %111 = call i32 @cuddNextHigh(ptr noundef %109, i32 noundef %110)
  %112 = load ptr, ptr %6, align 8, !tbaa !3
  %113 = getelementptr inbounds nuw %struct.DdManager, ptr %112, i32 0, i32 19
  %114 = load ptr, ptr %113, align 8, !tbaa !34
  %115 = load i32, ptr %8, align 4, !tbaa !8
  %116 = sext i32 %115 to i64
  %117 = getelementptr inbounds %struct.DdSubtable, ptr %114, i64 %116
  %118 = getelementptr inbounds nuw %struct.DdSubtable, ptr %117, i32 0, i32 6
  store i32 %111, ptr %118, align 4, !tbaa !35
  %119 = load ptr, ptr %6, align 8, !tbaa !3
  %120 = load i32, ptr %8, align 4, !tbaa !8
  %121 = call i32 @cuddNextHigh(ptr noundef %119, i32 noundef %120)
  store i32 %121, ptr %8, align 4, !tbaa !8
  br label %122

122:                                              ; preds = %108
  %123 = load i32, ptr %12, align 4, !tbaa !8
  %124 = add nsw i32 %123, 1
  store i32 %124, ptr %12, align 4, !tbaa !8
  br label %103, !llvm.loop !126

125:                                              ; preds = %103
  %126 = load i32, ptr %14, align 4, !tbaa !8
  %127 = load ptr, ptr %6, align 8, !tbaa !3
  %128 = getelementptr inbounds nuw %struct.DdManager, ptr %127, i32 0, i32 19
  %129 = load ptr, ptr %128, align 8, !tbaa !34
  %130 = load i32, ptr %8, align 4, !tbaa !8
  %131 = sext i32 %130 to i64
  %132 = getelementptr inbounds %struct.DdSubtable, ptr %129, i64 %131
  %133 = getelementptr inbounds nuw %struct.DdSubtable, ptr %132, i32 0, i32 6
  store i32 %126, ptr %133, align 4, !tbaa !35
  %134 = load ptr, ptr %6, align 8, !tbaa !3
  %135 = load i32, ptr %8, align 4, !tbaa !8
  %136 = call i32 @cuddNextHigh(ptr noundef %134, i32 noundef %135)
  store i32 %136, ptr %7, align 4, !tbaa !8
  %137 = load i32, ptr %7, align 4, !tbaa !8
  store i32 %137, ptr %20, align 4, !tbaa !8
  store i32 0, ptr %12, align 4, !tbaa !8
  br label %138

138:                                              ; preds = %157, %125
  %139 = load i32, ptr %12, align 4, !tbaa !8
  %140 = load i32, ptr %16, align 4, !tbaa !8
  %141 = sub nsw i32 %140, 1
  %142 = icmp slt i32 %139, %141
  br i1 %142, label %143, label %160

143:                                              ; preds = %138
  %144 = load ptr, ptr %6, align 8, !tbaa !3
  %145 = load i32, ptr %7, align 4, !tbaa !8
  %146 = call i32 @cuddNextHigh(ptr noundef %144, i32 noundef %145)
  %147 = load ptr, ptr %6, align 8, !tbaa !3
  %148 = getelementptr inbounds nuw %struct.DdManager, ptr %147, i32 0, i32 19
  %149 = load ptr, ptr %148, align 8, !tbaa !34
  %150 = load i32, ptr %7, align 4, !tbaa !8
  %151 = sext i32 %150 to i64
  %152 = getelementptr inbounds %struct.DdSubtable, ptr %149, i64 %151
  %153 = getelementptr inbounds nuw %struct.DdSubtable, ptr %152, i32 0, i32 6
  store i32 %146, ptr %153, align 4, !tbaa !35
  %154 = load ptr, ptr %6, align 8, !tbaa !3
  %155 = load i32, ptr %7, align 4, !tbaa !8
  %156 = call i32 @cuddNextHigh(ptr noundef %154, i32 noundef %155)
  store i32 %156, ptr %7, align 4, !tbaa !8
  br label %157

157:                                              ; preds = %143
  %158 = load i32, ptr %12, align 4, !tbaa !8
  %159 = add nsw i32 %158, 1
  store i32 %159, ptr %12, align 4, !tbaa !8
  br label %138, !llvm.loop !127

160:                                              ; preds = %138
  %161 = load i32, ptr %20, align 4, !tbaa !8
  %162 = load ptr, ptr %6, align 8, !tbaa !3
  %163 = getelementptr inbounds nuw %struct.DdManager, ptr %162, i32 0, i32 19
  %164 = load ptr, ptr %163, align 8, !tbaa !34
  %165 = load i32, ptr %7, align 4, !tbaa !8
  %166 = sext i32 %165 to i64
  %167 = getelementptr inbounds %struct.DdSubtable, ptr %164, i64 %166
  %168 = getelementptr inbounds nuw %struct.DdSubtable, ptr %167, i32 0, i32 6
  store i32 %161, ptr %168, align 4, !tbaa !35
  %169 = load ptr, ptr %6, align 8, !tbaa !3
  %170 = call ptr @cuddDynamicAllocNode(ptr noundef %169)
  store ptr %170, ptr %10, align 8, !tbaa !82
  %171 = load ptr, ptr %10, align 8, !tbaa !82
  %172 = icmp eq ptr %171, null
  br i1 %172, label %173, label %174

173:                                              ; preds = %160
  br label %205

174:                                              ; preds = %160
  %175 = load i32, ptr %21, align 4, !tbaa !8
  %176 = load ptr, ptr %10, align 8, !tbaa !82
  %177 = getelementptr inbounds nuw %struct.Move, ptr %176, i32 0, i32 0
  store i32 %175, ptr %177, align 8, !tbaa !91
  %178 = load i32, ptr %22, align 4, !tbaa !8
  %179 = load ptr, ptr %10, align 8, !tbaa !82
  %180 = getelementptr inbounds nuw %struct.Move, ptr %179, i32 0, i32 1
  store i32 %178, ptr %180, align 4, !tbaa !88
  %181 = load ptr, ptr %10, align 8, !tbaa !82
  %182 = getelementptr inbounds nuw %struct.Move, ptr %181, i32 0, i32 2
  store i32 0, ptr %182, align 8, !tbaa !106
  %183 = load ptr, ptr %6, align 8, !tbaa !3
  %184 = getelementptr inbounds nuw %struct.DdManager, ptr %183, i32 0, i32 23
  %185 = load i32, ptr %184, align 4, !tbaa !43
  %186 = load ptr, ptr %6, align 8, !tbaa !3
  %187 = getelementptr inbounds nuw %struct.DdManager, ptr %186, i32 0, i32 36
  %188 = load i32, ptr %187, align 8, !tbaa !44
  %189 = sub i32 %185, %188
  %190 = load ptr, ptr %10, align 8, !tbaa !82
  %191 = getelementptr inbounds nuw %struct.Move, ptr %190, i32 0, i32 3
  store i32 %189, ptr %191, align 4, !tbaa !107
  %192 = load ptr, ptr %9, align 8, !tbaa !100
  %193 = load ptr, ptr %192, align 8, !tbaa !82
  %194 = load ptr, ptr %10, align 8, !tbaa !82
  %195 = getelementptr inbounds nuw %struct.Move, ptr %194, i32 0, i32 4
  store ptr %193, ptr %195, align 8, !tbaa !93
  %196 = load ptr, ptr %10, align 8, !tbaa !82
  %197 = load ptr, ptr %9, align 8, !tbaa !100
  store ptr %196, ptr %197, align 8, !tbaa !82
  %198 = load ptr, ptr %6, align 8, !tbaa !3
  %199 = getelementptr inbounds nuw %struct.DdManager, ptr %198, i32 0, i32 23
  %200 = load i32, ptr %199, align 4, !tbaa !43
  %201 = load ptr, ptr %6, align 8, !tbaa !3
  %202 = getelementptr inbounds nuw %struct.DdManager, ptr %201, i32 0, i32 36
  %203 = load i32, ptr %202, align 8, !tbaa !44
  %204 = sub i32 %200, %203
  store i32 %204, ptr %5, align 4
  store i32 1, ptr %23, align 4
  br label %231

205:                                              ; preds = %173, %80
  br label %206

206:                                              ; preds = %210, %205
  %207 = load ptr, ptr %9, align 8, !tbaa !100
  %208 = load ptr, ptr %207, align 8, !tbaa !82
  %209 = icmp ne ptr %208, null
  br i1 %209, label %210, label %230

210:                                              ; preds = %206
  %211 = load ptr, ptr %9, align 8, !tbaa !100
  %212 = load ptr, ptr %211, align 8, !tbaa !82
  %213 = getelementptr inbounds nuw %struct.Move, ptr %212, i32 0, i32 4
  %214 = load ptr, ptr %213, align 8, !tbaa !93
  store ptr %214, ptr %10, align 8, !tbaa !82
  %215 = load ptr, ptr %9, align 8, !tbaa !100
  %216 = load ptr, ptr %215, align 8, !tbaa !82
  %217 = getelementptr inbounds nuw %struct.DdNode, ptr %216, i32 0, i32 1
  store i32 0, ptr %217, align 4, !tbaa !71
  %218 = load ptr, ptr %6, align 8, !tbaa !3
  %219 = getelementptr inbounds nuw %struct.DdManager, ptr %218, i32 0, i32 48
  %220 = load ptr, ptr %219, align 8, !tbaa !94
  %221 = load ptr, ptr %9, align 8, !tbaa !100
  %222 = load ptr, ptr %221, align 8, !tbaa !82
  %223 = getelementptr inbounds nuw %struct.DdNode, ptr %222, i32 0, i32 2
  store ptr %220, ptr %223, align 8, !tbaa !73
  %224 = load ptr, ptr %9, align 8, !tbaa !100
  %225 = load ptr, ptr %224, align 8, !tbaa !82
  %226 = load ptr, ptr %6, align 8, !tbaa !3
  %227 = getelementptr inbounds nuw %struct.DdManager, ptr %226, i32 0, i32 48
  store ptr %225, ptr %227, align 8, !tbaa !94
  %228 = load ptr, ptr %10, align 8, !tbaa !82
  %229 = load ptr, ptr %9, align 8, !tbaa !100
  store ptr %228, ptr %229, align 8, !tbaa !82
  br label %206, !llvm.loop !128

230:                                              ; preds = %206
  store i32 0, ptr %5, align 4
  store i32 1, ptr %23, align 4
  br label %231

231:                                              ; preds = %230, %174
  call void @llvm.lifetime.end.p0(i64 4, ptr %22) #6
  call void @llvm.lifetime.end.p0(i64 4, ptr %21) #6
  call void @llvm.lifetime.end.p0(i64 4, ptr %20) #6
  call void @llvm.lifetime.end.p0(i64 4, ptr %19) #6
  call void @llvm.lifetime.end.p0(i64 4, ptr %18) #6
  call void @llvm.lifetime.end.p0(i64 4, ptr %17) #6
  call void @llvm.lifetime.end.p0(i64 4, ptr %16) #6
  call void @llvm.lifetime.end.p0(i64 4, ptr %15) #6
  call void @llvm.lifetime.end.p0(i64 4, ptr %14) #6
  call void @llvm.lifetime.end.p0(i64 4, ptr %13) #6
  call void @llvm.lifetime.end.p0(i64 4, ptr %12) #6
  call void @llvm.lifetime.end.p0(i64 4, ptr %11) #6
  call void @llvm.lifetime.end.p0(i64 8, ptr %10) #6
  %232 = load i32, ptr %5, align 4
  ret i32 %232
}