; Function Attrs: nounwind uwtable
define internal fastcc i32 @ddGroupMove(ptr noundef %0, i32 noundef %1, i32 noundef %2, ptr noundef nonnull captures(none) %3) unnamed_addr #0 {
  %5 = getelementptr inbounds nuw i8, ptr %0, i64 152
  %6 = load ptr, ptr %5, align 8, !tbaa !31
  %7 = sext i32 %1 to i64
  %8 = getelementptr inbounds %struct.DdSubtable, ptr %6, i64 %7, i32 6
  %9 = load i32, ptr %8, align 4, !tbaa !32
  br label %10

10:                                               ; preds = %10, %4
  %.091 = phi i32 [ %2, %4 ], [ %13, %10 ]
  %11 = sext i32 %.091 to i64
  %12 = getelementptr inbounds %struct.DdSubtable, ptr %6, i64 %11, i32 6
  %13 = load i32, ptr %12, align 4, !tbaa !32
  %14 = icmp ult i32 %.091, %13
  br i1 %14, label %10, label %15, !llvm.loop !122

15:                                               ; preds = %10
  %16 = sub i32 %1, %9
  %17 = sub nsw i32 %.091, %2
  %.not115 = icmp slt i32 %17, 0
  br i1 %.not115, label %._crit_edge126, label %.preheader104.lr.ph

.preheader104.lr.ph:                              ; preds = %15
  %.not102110 = icmp slt i32 %16, 0
  br i1 %.not102110, label %.preheader104.us.preheader, label %.preheader104.preheader

.preheader104.preheader:                          ; preds = %.preheader104.lr.ph
  %18 = add i32 %1, 2
  %19 = sub i32 %18, %9
  %reass.sub = sub i32 %.091, %2
  %20 = add i32 %reass.sub, 1
  br label %.preheader104

.preheader104.us.preheader:                       ; preds = %.preheader104.lr.ph
  %reass.sub148 = sub i32 %.091, %2
  %21 = add i32 %reass.sub148, 1
  br label %.preheader104.us

.preheader104.us:                                 ; preds = %.preheader104.us.preheader, %.preheader104.us
  %.095116.us = phi i32 [ %24, %.preheader104.us ], [ 1, %.preheader104.us.preheader ]
  %22 = add nsw i32 %.095116.us, %2
  %23 = tail call i32 @cuddNextLow(ptr noundef %0, i32 noundef %22) #11
  %24 = add nuw i32 %.095116.us, 1
  %exitcond145 = icmp eq i32 %.095116.us, %21
  br i1 %exitcond145, label %.preheader, label %.preheader104.us, !llvm.loop !123

.preheader104:                                    ; preds = %.preheader104.preheader, %._crit_edge
  %.089118 = phi i32 [ %32, %._crit_edge ], [ %1, %.preheader104.preheader ]
  %.092117 = phi i32 [ %31, %._crit_edge ], [ %2, %.preheader104.preheader ]
  %.095116 = phi i32 [ %33, %._crit_edge ], [ 1, %.preheader104.preheader ]
  br label %25

.preheader:                                       ; preds = %._crit_edge, %.preheader104.us
  %.086.lcssa = phi i32 [ -1, %.preheader104.us ], [ %.190113, %._crit_edge ]
  %.0.lcssa = phi i32 [ -1, %.preheader104.us ], [ %.193112, %._crit_edge ]
  %.not = icmp eq i32 %.091, %2
  br i1 %.not, label %._crit_edge126, label %.lr.ph

25:                                               ; preds = %.preheader104, %28
  %.190113 = phi i32 [ %.089118, %.preheader104 ], [ %29, %28 ]
  %.193112 = phi i32 [ %.092117, %.preheader104 ], [ %.190113, %28 ]
  %.098111 = phi i32 [ 1, %.preheader104 ], [ %30, %28 ]
  %26 = tail call i32 @cuddSwapInPlace(ptr noundef %0, i32 noundef %.190113, i32 noundef %.193112) #11
  %27 = icmp eq i32 %26, 0
  br i1 %27, label %.loopexit105, label %28

28:                                               ; preds = %25
  %29 = tail call i32 @cuddNextLow(ptr noundef %0, i32 noundef %.190113) #11
  %30 = add nuw i32 %.098111, 1
  %exitcond = icmp eq i32 %30, %19
  br i1 %exitcond, label %._crit_edge, label %25, !llvm.loop !124

._crit_edge:                                      ; preds = %28
  %31 = add nsw i32 %.095116, %2
  %32 = tail call i32 @cuddNextLow(ptr noundef %0, i32 noundef %31) #11
  %33 = add nuw i32 %.095116, 1
  %exitcond143 = icmp eq i32 %.095116, %20
  br i1 %exitcond143, label %.preheader, label %.preheader104, !llvm.loop !123

.lr.ph:                                           ; preds = %.preheader, %.lr.ph
  %.294125 = phi i32 [ %38, %.lr.ph ], [ %9, %.preheader ]
  %.196124 = phi i32 [ %39, %.lr.ph ], [ 0, %.preheader ]
  %34 = tail call i32 @cuddNextHigh(ptr noundef %0, i32 noundef %.294125) #11
  %35 = load ptr, ptr %5, align 8, !tbaa !31
  %36 = sext i32 %.294125 to i64
  %37 = getelementptr inbounds %struct.DdSubtable, ptr %35, i64 %36, i32 6
  store i32 %34, ptr %37, align 4, !tbaa !32
  %38 = tail call i32 @cuddNextHigh(ptr noundef %0, i32 noundef %.294125) #11
  %39 = add nuw nsw i32 %.196124, 1
  %exitcond146.not = icmp eq i32 %39, %17
  br i1 %exitcond146.not, label %._crit_edge126, label %.lr.ph, !llvm.loop !125

._crit_edge126:                                   ; preds = %.lr.ph, %15, %.preheader
  %.0.lcssa152 = phi i32 [ %.0.lcssa, %.preheader ], [ -1, %15 ], [ %.0.lcssa, %.lr.ph ]
  %.086.lcssa151 = phi i32 [ %.086.lcssa, %.preheader ], [ -1, %15 ], [ %.086.lcssa, %.lr.ph ]
  %.294.lcssa = phi i32 [ %9, %.preheader ], [ %9, %15 ], [ %38, %.lr.ph ]
  %40 = load ptr, ptr %5, align 8, !tbaa !31
  %41 = sext i32 %.294.lcssa to i64
  %42 = getelementptr inbounds %struct.DdSubtable, ptr %40, i64 %41, i32 6
  store i32 %9, ptr %42, align 4, !tbaa !32
  %43 = tail call i32 @cuddNextHigh(ptr noundef %0, i32 noundef %.294.lcssa) #11
  %44 = icmp sgt i32 %16, 0
  br i1 %44, label %.lr.ph131, label %._crit_edge132

.lr.ph131:                                        ; preds = %._crit_edge126, %.lr.ph131
  %.2129 = phi i32 [ %49, %.lr.ph131 ], [ %43, %._crit_edge126 ]
  %.297128 = phi i32 [ %50, %.lr.ph131 ], [ 0, %._crit_edge126 ]
  %45 = tail call i32 @cuddNextHigh(ptr noundef nonnull %0, i32 noundef %.2129) #11
  %46 = load ptr, ptr %5, align 8, !tbaa !31
  %47 = sext i32 %.2129 to i64
  %48 = getelementptr inbounds %struct.DdSubtable, ptr %46, i64 %47, i32 6
  store i32 %45, ptr %48, align 4, !tbaa !32
  %49 = tail call i32 @cuddNextHigh(ptr noundef nonnull %0, i32 noundef %.2129) #11
  %50 = add nuw nsw i32 %.297128, 1
  %exitcond147.not = icmp eq i32 %50, %16
  br i1 %exitcond147.not, label %._crit_edge132, label %.lr.ph131, !llvm.loop !126

._crit_edge132:                                   ; preds = %.lr.ph131, %._crit_edge126
  %.2.lcssa = phi i32 [ %43, %._crit_edge126 ], [ %49, %.lr.ph131 ]
  %51 = load ptr, ptr %5, align 8, !tbaa !31
  %52 = sext i32 %.2.lcssa to i64
  %53 = getelementptr inbounds %struct.DdSubtable, ptr %51, i64 %52, i32 6
  store i32 %43, ptr %53, align 4, !tbaa !32
  %54 = tail call ptr @cuddDynamicAllocNode(ptr noundef nonnull %0) #11
  %55 = icmp eq ptr %54, null
  br i1 %55, label %.loopexit105, label %56

56:                                               ; preds = %._crit_edge132
  store i32 %.086.lcssa151, ptr %54, align 8, !tbaa !87
  %57 = getelementptr inbounds nuw i8, ptr %54, i64 4
  store i32 %.0.lcssa152, ptr %57, align 4, !tbaa !84
  %58 = getelementptr inbounds nuw i8, ptr %54, i64 8
  store i32 0, ptr %58, align 8, !tbaa !99
  %59 = getelementptr inbounds nuw i8, ptr %0, i64 228
  %60 = load i32, ptr %59, align 4, !tbaa !42
  %61 = getelementptr inbounds nuw i8, ptr %0, i64 304
  %62 = load i32, ptr %61, align 8, !tbaa !43
  %63 = sub i32 %60, %62
  %64 = getelementptr inbounds nuw i8, ptr %54, i64 12
  store i32 %63, ptr %64, align 4, !tbaa !100
  %65 = load ptr, ptr %3, align 8, !tbaa !77
  %66 = getelementptr inbounds nuw i8, ptr %54, i64 16
  store ptr %65, ptr %66, align 8, !tbaa !90
  store ptr %54, ptr %3, align 8, !tbaa !77
  br label %.loopexit

.loopexit105:                                     ; preds = %25, %._crit_edge132
  %.pr = load ptr, ptr %3, align 8, !tbaa !77
  %.not103134 = icmp eq ptr %.pr, null
  br i1 %.not103134, label %.loopexit, label %.lr.ph136

.lr.ph136:                                        ; preds = %.loopexit105
  %67 = getelementptr inbounds nuw i8, ptr %0, i64 400
  %.promoted = load ptr, ptr %67, align 8, !tbaa !89
  br label %68

68:                                               ; preds = %.lr.ph136, %68
  %69 = phi ptr [ %.promoted, %.lr.ph136 ], [ %70, %68 ]
  %70 = phi ptr [ %.pr, %.lr.ph136 ], [ %72, %68 ]
  %71 = getelementptr inbounds nuw i8, ptr %70, i64 16
  %72 = load ptr, ptr %71, align 8, !tbaa !90
  %73 = getelementptr inbounds nuw i8, ptr %70, i64 4
  store i32 0, ptr %73, align 4, !tbaa !70
  %74 = getelementptr inbounds nuw i8, ptr %70, i64 8
  store ptr %69, ptr %74, align 8, !tbaa !91
  store ptr %72, ptr %3, align 8, !tbaa !77
  %.not103 = icmp eq ptr %72, null
  br i1 %.not103, label %..loopexit_crit_edge, label %68, !llvm.loop !127

..loopexit_crit_edge:                             ; preds = %68
  store ptr %70, ptr %67, align 8, !tbaa !89
  br label %.loopexit

.loopexit:                                        ; preds = %.loopexit105, %..loopexit_crit_edge, %56
  %.088 = phi i32 [ %63, %56 ], [ 0, %..loopexit_crit_edge ], [ 0, %.loopexit105 ]
  ret i32 %.088
}